; Function Attrs: nounwind uwtable
define ptr @l_Lean_IR_ExpandResetReuse_mkSlowPath(ptr noundef %0, ptr noundef %1, ptr noundef readonly captures(none) %2, ptr noundef %3) local_unnamed_addr #1 {
  %5 = tail call ptr @l_Lean_IR_ExpandResetReuse_reuseToCtor(ptr noundef %0, ptr noundef %3)
  tail call void @lean_inc_heartbeat() #4
  %6 = tail call noalias ptr @mi_malloc_small(i64 noundef 40) #4
  %7 = icmp eq ptr %6, null
  br i1 %7, label %8, label %lean_nat_lt.exit

8:                                                ; preds = %4
  tail call void @lean_internal_panic_out_of_memory() #5
  unreachable

lean_nat_lt.exit:                                 ; preds = %4
  %9 = getelementptr inbounds nuw i8, ptr %6, i64 4
  %10 = getelementptr inbounds nuw i8, ptr %6, i64 32
  store i64 1, ptr %10, align 8, !tbaa !9
  store i32 1, ptr %6, align 4, !tbaa !4
  store i32 117637160, ptr %9, align 4
  %11 = getelementptr inbounds nuw i8, ptr %6, i64 8
  store ptr %1, ptr %11, align 8, !tbaa !11
  %12 = getelementptr inbounds nuw i8, ptr %6, i64 16
  store ptr inttoptr (i64 3 to ptr), ptr %12, align 8, !tbaa !11
  %13 = getelementptr inbounds nuw i8, ptr %6, i64 24
  store ptr %5, ptr %13, align 8, !tbaa !11
  %14 = getelementptr i8, ptr %2, i64 8
  %.val = load i64, ptr %14, align 8, !tbaa !9
  %.mask = and i64 %.val, 9223372036854775807
  %.not = icmp eq i64 %.mask, 0
  br i1 %.not, label %lean_dec.exit31, label %lean_dec.exit

lean_dec.exit:                                    ; preds = %lean_nat_lt.exit
  %15 = tail call ptr @l_Array_foldlMUnsafe_fold___at_Lean_IR_ExpandResetReuse_mkSlowPath___spec__1(ptr noundef nonnull %2, i64 noundef 0, i64 noundef %.mask, ptr noundef nonnull %6)
  br label %lean_dec.exit31

lean_dec.exit31:                                  ; preds = %lean_nat_lt.exit, %lean_dec.exit
  %.0 = phi ptr [ %15, %lean_dec.exit ], [ %6, %lean_nat_lt.exit ]
  ret ptr %.0
}